target datalayout = "e-m:e-p270:32:32-p271:32:32-p272:64:64-i64:64-i128:128-f80:128-n8:16:32:64-S128"
target triple = "x86_64-pc-linux-gnu"

%struct.client_conn_tag = type { i32, ptr, i32, i32, ptr, ptr, ptr, i64, i8, ptr, i32, i64, ptr, i32 }

@.str.11 = private unnamed_addr constant [19 x i8] c"%u: %s: %s FOUND%c\00", align 1
@.str.12 = private unnamed_addr constant [15 x i8] c"%s: %s FOUND%c\00", align 1

; Function Attrs: nounwind uwtable
define dso_local i32 @conn_reply_virus(ptr noundef %0, ptr noundef %1, ptr noundef %2) #0 {
  %4 = alloca i32, align 4
  %5 = alloca ptr, align 8
  %6 = alloca ptr, align 8
  %7 = alloca ptr, align 8
  store ptr %0, ptr %5, align 8, !tbaa !22
  store ptr %1, ptr %6, align 8, !tbaa !4
  store ptr %2, ptr %7, align 8, !tbaa !4
  %8 = load ptr, ptr %5, align 8, !tbaa !22
  %9 = getelementptr inbounds nuw %struct.client_conn_tag, ptr %8, i32 0, i32 10
  %10 = load i32, ptr %9, align 8, !tbaa !24
  %11 = icmp ne i32 %10, 0
  br i1 %11, label %12, label %26

12:                                               ; preds = %3
  %13 = load ptr, ptr %5, align 8, !tbaa !22
  %14 = getelementptr inbounds nuw %struct.client_conn_tag, ptr %13, i32 0, i32 3
  %15 = load i32, ptr %14, align 4, !tbaa !31
  %16 = load ptr, ptr %5, align 8, !tbaa !22
  %17 = getelementptr inbounds nuw %struct.client_conn_tag, ptr %16, i32 0, i32 10
  %18 = load i32, ptr %17, align 8, !tbaa !24
  %19 = load ptr, ptr %6, align 8, !tbaa !4
  %20 = load ptr, ptr %7, align 8, !tbaa !4
  %21 = load ptr, ptr %5, align 8, !tbaa !22
  %22 = getelementptr inbounds nuw %struct.client_conn_tag, ptr %21, i32 0, i32 8
  %23 = load i8, ptr %22, align 8, !tbaa !32
  %24 = sext i8 %23 to i32
  %25 = call i32 (i32, ptr, ...) @mdprintf(i32 noundef %15, ptr noundef @.str.11, i32 noundef %18, ptr noundef %19, ptr noundef %20, i32 noundef %24)
  store i32 %25, ptr %4, align 4
  br label %37

26:                                               ; preds = %3
  %27 = load ptr, ptr %5, align 8, !tbaa !22
  %28 = getelementptr inbounds nuw %struct.client_conn_tag, ptr %27, i32 0, i32 3
  %29 = load i32, ptr %28, align 4, !tbaa !31
  %30 = load ptr, ptr %6, align 8, !tbaa !4
  %31 = load ptr, ptr %7, align 8, !tbaa !4
  %32 = load ptr, ptr %5, align 8, !tbaa !22
  %33 = getelementptr inbounds nuw %struct.client_conn_tag, ptr %32, i32 0, i32 8
  %34 = load i8, ptr %33, align 8, !tbaa !32
  %35 = sext i8 %34 to i32
  %36 = call i32 (i32, ptr, ...) @mdprintf(i32 noundef %29, ptr noundef @.str.12, ptr noundef %30, ptr noundef %31, i32 noundef %35)
  store i32 %36, ptr %4, align 4
  br label %37

37:                                               ; preds = %26, %12
  %38 = load i32, ptr %4, align 4
  ret i32 %38
}