; Function Attrs: nounwind uwtable
define dso_local i32 @conn_reply_virus(ptr noundef readonly captures(none) %0, ptr noundef %1, ptr noundef %2) local_unnamed_addr #0 {
  %4 = getelementptr inbounds nuw i8, ptr %0, i64 72
  %5 = load i32, ptr %4, align 8, !tbaa !18
  %.not = icmp eq i32 %5, 0
  %6 = getelementptr inbounds nuw i8, ptr %0, i64 20
  %7 = load i32, ptr %6, align 4, !tbaa !25
  %8 = getelementptr inbounds nuw i8, ptr %0, i64 56
  %9 = load i8, ptr %8, align 8, !tbaa !26
  %10 = sext i8 %9 to i32
  br i1 %.not, label %13, label %11

11:                                               ; preds = %3
  %12 = tail call i32 (i32, ptr, ...) @mdprintf(i32 noundef %7, ptr noundef nonnull @.str.11, i32 noundef %5, ptr noundef %1, ptr noundef %2, i32 noundef %10) #14
  br label %15

13:                                               ; preds = %3
  %14 = tail call i32 (i32, ptr, ...) @mdprintf(i32 noundef %7, ptr noundef nonnull @.str.12, ptr noundef %1, ptr noundef %2, i32 noundef %10) #14
  br label %15

15:                                               ; preds = %13, %11
  %.0 = phi i32 [ %12, %11 ], [ %14, %13 ]
  ret i32 %.0
}